; Function Attrs: nounwind uwtable
define internal void @cnct_cbfunc(i32 noundef %0, ptr noundef %1, ptr noundef %2) #0 {
  %4 = load i32, ptr getelementptr inbounds nuw (i8, ptr @pmix_ptl_base_framework, i64 76), align 4, !tbaa !3
  %or.cond = icmp ult i32 %4, 64
  br i1 %or.cond, label %5, label %14

5:                                                ; preds = %3
  %6 = zext nneg i32 %4 to i64
  %7 = getelementptr inbounds nuw [0 x %struct.pmix_output_desc_t], ptr @pmix_output_info, i64 0, i64 %6, i32 2
  %8 = load i32, ptr %7, align 4, !tbaa !18
  %9 = icmp sgt i32 %8, 1
  br i1 %9, label %10, label %14

10:                                               ; preds = %5
  %11 = getelementptr inbounds nuw i8, ptr %1, i64 256
  %12 = load i32, ptr %11, align 4, !tbaa !192
  %13 = tail call ptr @PMIx_Error_string(i32 noundef %0) #17
  tail call void (i32, ptr, ...) @pmix_output(i32 noundef %4, ptr noundef nonnull @.str.24, ptr noundef %1, i32 noundef %12, ptr noundef %13) #17
  br label %14

14:                                               ; preds = %10, %5, %3
  %15 = load i64, ptr getelementptr inbounds nuw (i8, ptr @pmix_setup_caddy_t_class, i64 56), align 8, !tbaa !132
  %16 = tail call noalias noundef ptr @malloc(i64 noundef %15) #19
  %17 = load i32, ptr @pmix_class_init_epoch, align 4, !tbaa !77
  %18 = load i32, ptr getelementptr inbounds nuw (i8, ptr @pmix_setup_caddy_t_class, i64 32), align 8, !tbaa !133
  %.not.i = icmp eq i32 %17, %18
  br i1 %.not.i, label %20, label %19

19:                                               ; preds = %14
  tail call void @pmix_class_initialize(ptr noundef nonnull @pmix_setup_caddy_t_class) #17
  br label %20

20:                                               ; preds = %19, %14
  %.not22.i = icmp eq ptr %16, null
  br i1 %.not22.i, label %pmix_obj_new_tma.exit, label %21

21:                                               ; preds = %20
  %22 = tail call i32 @pthread_mutex_init(ptr noundef nonnull %16, ptr noundef null) #17
  %23 = getelementptr inbounds nuw i8, ptr %16, i64 40
  store ptr @pmix_setup_caddy_t_class, ptr %23, align 8, !tbaa !126
  %24 = getelementptr inbounds nuw i8, ptr %16, i64 48
  store i32 1, ptr %24, align 8, !tbaa !78
  %25 = getelementptr inbounds nuw i8, ptr %16, i64 56
  %26 = getelementptr inbounds nuw i8, ptr %16, i64 96
  tail call void @llvm.memset.p0.i64(ptr noundef nonnull align 8 dereferenceable(32) %25, i8 0, i64 32, i1 false)
  tail call void @llvm.memset.p0.i64(ptr noundef nonnull align 8 dereferenceable(24) %26, i8 0, i64 24, i1 false)
  %27 = load ptr, ptr getelementptr inbounds nuw (i8, ptr @pmix_setup_caddy_t_class, i64 40), align 8, !tbaa !134
  %28 = load ptr, ptr %27, align 8, !tbaa !129
  %.not6.i.i = icmp eq ptr %28, null
  br i1 %.not6.i.i, label %.loopexit, label %.lr.ph.i.i

.lr.ph.i.i:                                       ; preds = %21, %.lr.ph.i.i
  %29 = phi ptr [ %31, %.lr.ph.i.i ], [ %28, %21 ]
  %.07.i.i = phi ptr [ %30, %.lr.ph.i.i ], [ %27, %21 ]
  tail call void %29(ptr noundef nonnull %16) #17
  %30 = getelementptr inbounds nuw i8, ptr %.07.i.i, i64 8
  %31 = load ptr, ptr %30, align 8, !tbaa !129
  %.not.i.i = icmp eq ptr %31, null
  br i1 %.not.i.i, label %.loopexit, label %.lr.ph.i.i, !llvm.loop !135

pmix_obj_new_tma.exit:                            ; preds = %20
  %32 = tail call ptr @PMIx_Error_string(i32 noundef -32) #17
  tail call void (i32, ptr, ...) @pmix_output(i32 noundef 0, ptr noundef nonnull @.str.2, ptr noundef %32, ptr noundef nonnull @.str.3, i32 noundef 671) #17
  br label %41

.loopexit:                                        ; preds = %.lr.ph.i.i, %21
  %33 = getelementptr inbounds nuw i8, ptr %16, i64 488
  store i32 %0, ptr %33, align 8, !tbaa !193
  %34 = getelementptr inbounds nuw i8, ptr %16, i64 512
  %35 = getelementptr inbounds nuw i8, ptr %1, i64 256
  %36 = load i32, ptr %35, align 4, !tbaa !192
  tail call void @PMIx_Load_procid(ptr noundef nonnull %34, ptr noundef %1, i32 noundef %36) #17
  %37 = getelementptr inbounds nuw i8, ptr %16, i64 992
  store ptr %2, ptr %37, align 8, !tbaa !199
  %38 = getelementptr inbounds nuw i8, ptr %16, i64 120
  %39 = load ptr, ptr getelementptr inbounds nuw (i8, ptr @pmix_globals, i64 376), align 8, !tbaa !124
  %40 = tail call i32 @pmix_event_assign(ptr noundef nonnull %38, ptr noundef %39, i32 noundef -1, i16 noundef signext 4, ptr noundef nonnull @process_cbfunc, ptr noundef nonnull %16) #17
  fence release
  tail call void @event_active(ptr noundef nonnull %38, i32 noundef 4, i16 noundef signext 1) #17
  br label %41

41:                                               ; preds = %.loopexit, %pmix_obj_new_tma.exit
  ret void
}